; Function Attrs: mustprogress nofree norecurse nosync nounwind willreturn memory(read, inaccessiblemem: none) uwtable
define dso_local noundef zeroext i1 @_ZNK4Type24is_full_bitfields_structEv(ptr nocapture noundef nonnull readonly align 8 dereferenceable(136) %0) local_unnamed_addr #10 align 2 {
  %2 = load i32, ptr %0, align 8
  %.not = icmp eq i32 %2, 3
  br i1 %.not, label %.preheader, label %.loopexit

.preheader:                                       ; preds = %1
  %3 = getelementptr inbounds i8, ptr %0, i64 112
  %4 = getelementptr inbounds i8, ptr %0, i64 120
  %5 = load ptr, ptr %4, align 8
  %6 = load ptr, ptr %3, align 8
  %.not8 = icmp eq ptr %5, %6
  br i1 %.not8, label %.loopexit, label %.lr.ph.preheader

.lr.ph.preheader:                                 ; preds = %.preheader
  %7 = ptrtoint ptr %5 to i64
  %8 = ptrtoint ptr %6 to i64
  %9 = sub i64 %7, %8
  %10 = ashr exact i64 %9, 2
  %umax = tail call i64 @llvm.umax.i64(i64 %10, i64 1)
  br label %.lr.ph

.lr.ph:                                           ; preds = %.lr.ph, %.lr.ph.preheader
  %.05 = phi i64 [ 0, %.lr.ph.preheader ], [ %14, %.lr.ph ]
  %11 = getelementptr inbounds i32, ptr %6, i64 %.05
  %12 = load i32, ptr %11, align 4
  %13 = icmp sgt i32 %12, -1
  %14 = add nuw i64 %.05, 1
  %exitcond.not = icmp ne i64 %14, %umax
  %or.cond.not = select i1 %13, i1 %exitcond.not, i1 false
  br i1 %or.cond.not, label %.lr.ph, label %.loopexit, !llvm.loop !44

.loopexit:                                        ; preds = %.lr.ph, %.preheader, %1
  %.04 = phi i1 [ false, %1 ], [ true, %.preheader ], [ %13, %.lr.ph ]
  ret i1 %.04
}